ccopy_reg
_reconstructor
p1
(cfacebook
Facebook
p2
c__builtin__
object
p3
NtRp4
(dp5
S'session_key'
p6
Vcafa6ba8055a621c49d02b58-707610112
p7
sS'uid'
p8
V707610112
p9
sS'auth_token'
p10
V8f453a04d30983569f2494e52034c13d
p11
sS'secret'
p12
Vc70a6332d62d7a37e588f62208076cca
p13
sS'secret_key'
p14
S'7005f938621088c7fd9ce4b1aef0f0a5'
p15
sS'api_key'
p16
S'54c7dcbc4f6bb4b31a2bcceeb619ab77'
p17
sb.